; Function Attrs: mustprogress nofree norecurse nosync nounwind willreturn memory(none) uwtable
define range(i64 -9, 6) i64 @_testfunc_bitfield_by_value1(i32 %0) local_unnamed_addr #10 {
  %.sroa.0.0.extract.trunc = trunc i32 %0 to i8
  %2 = and i32 %0, 1
  %3 = shl i8 %.sroa.0.0.extract.trunc, 5
  %4 = ashr i8 %3, 6
  %5 = sext i8 %4 to i32
  %6 = shl i8 %.sroa.0.0.extract.trunc, 2
  %7 = ashr i8 %6, 5
  %8 = sext i8 %7 to i32
  %9 = ashr i8 %.sroa.0.0.extract.trunc, 6
  %10 = sext i8 %9 to i32
  %11 = sub nsw i32 %10, %2
  %12 = add nsw i32 %11, %5
  %13 = add nsw i32 %12, %8
  %14 = sext i32 %13 to i64
  ret i64 %14
}